; Function Attrs: mustprogress uwtable
define noundef zeroext i1 @_Z24ShouldUseAresDnsResolverv() local_unnamed_addr #3 personality ptr @__gxx_personality_v0 {
  %1 = load atomic i64, ptr @_ZN9grpc_core10ConfigVars12config_vars_E acquire, align 8
  %.0.i.i.i = inttoptr i64 %1 to ptr
  %.not.i = icmp eq i64 %1, 0
  br i1 %.not.i, label %2, label %_ZN9grpc_core10ConfigVars3GetEv.exit

2:                                                ; preds = %0
  %3 = tail call noundef nonnull align 8 dereferenceable(280) ptr @_ZN9grpc_core10ConfigVars4LoadEv()
  br label %_ZN9grpc_core10ConfigVars3GetEv.exit

_ZN9grpc_core10ConfigVars3GetEv.exit:             ; preds = %0, %2
  %.0.i = phi ptr [ %3, %2 ], [ %.0.i.i.i, %0 ]
  %4 = getelementptr inbounds nuw i8, ptr %.0.i, i64 16
  %5 = load i64, ptr %4, align 8, !tbaa !17
  %6 = icmp eq i64 %5, 0
  br i1 %6, label %11, label %7

7:                                                ; preds = %_ZN9grpc_core10ConfigVars3GetEv.exit
  %8 = getelementptr inbounds nuw i8, ptr %.0.i, i64 8
  %9 = load ptr, ptr %8, align 8, !tbaa !11
  %10 = tail call noundef zeroext i1 @_ZN4absl12lts_2024072216EqualsIgnoreCaseESt17basic_string_viewIcSt11char_traitsIcEES4_(i64 %5, ptr %9, i64 4, ptr nonnull @.str.63) #34
  br label %11

11:                                               ; preds = %7, %_ZN9grpc_core10ConfigVars3GetEv.exit
  %12 = phi i1 [ true, %_ZN9grpc_core10ConfigVars3GetEv.exit ], [ %10, %7 ]
  ret i1 %12
}